; Function Attrs: mustprogress nounwind uwtable
define void @_ZN6duckdb12ListBindDataD2Ev(ptr noundef nonnull align 8 dereferenceable(88) initializes((0, 8)) %0) unnamed_addr #5 align 2 personality ptr @__gxx_personality_v0 {
  store ptr getelementptr inbounds nuw inrange(-16, 32) (i8, ptr @_ZTVN6duckdb12ListBindDataE, i64 16), ptr %0, align 8, !tbaa !34
  %2 = getelementptr inbounds nuw i8, ptr %0, i64 64
  %3 = load ptr, ptr %2, align 8, !tbaa !108
  %4 = getelementptr inbounds nuw i8, ptr %0, i64 72
  %5 = load ptr, ptr %4, align 8, !tbaa !109
  invoke void @_ZNSt12_Destroy_auxILb0EE9__destroyIPN6duckdb20ListSegmentFunctionsEEEvT_S5_(ptr noundef %3, ptr noundef %5)
          to label %_ZNSt6vectorIN6duckdb20ListSegmentFunctionsESaIS1_EED2Ev.exit.i unwind label %6

6:                                                ; preds = %1
  %7 = landingpad { ptr, i32 }
          catch ptr null
  %8 = extractvalue { ptr, i32 } %7, 0
  tail call void @__clang_call_terminate(ptr %8) #28
  unreachable

_ZNSt6vectorIN6duckdb20ListSegmentFunctionsESaIS1_EED2Ev.exit.i: ; preds = %1
  %9 = load ptr, ptr %2, align 8, !tbaa !108
  %.not.i.i.i = icmp eq ptr %9, null
  br i1 %.not.i.i.i, label %_ZN6duckdb20ListSegmentFunctionsD2Ev.exit, label %10

10:                                               ; preds = %_ZNSt6vectorIN6duckdb20ListSegmentFunctionsESaIS1_EED2Ev.exit.i
  tail call void @_ZdlPv(ptr noundef nonnull %9) #29
  br label %_ZN6duckdb20ListSegmentFunctionsD2Ev.exit

_ZN6duckdb20ListSegmentFunctionsD2Ev.exit:        ; preds = %_ZNSt6vectorIN6duckdb20ListSegmentFunctionsESaIS1_EED2Ev.exit.i, %10
  %11 = getelementptr inbounds nuw i8, ptr %0, i64 8
  tail call void @_ZN6duckdb11LogicalTypeD1Ev(ptr noundef nonnull align 8 dereferenceable(24) %11) #25
  tail call void @_ZN6duckdb12FunctionDataD2Ev(ptr noundef nonnull align 8 dereferenceable(8) %0) #25
  ret void
}